target datalayout = "e-m:e-p270:32:32-p271:32:32-p272:64:64-i64:64-i128:128-f80:128-n8:16:32:64-S128"
target triple = "x86_64-pc-linux-gnu"

; Function Attrs: alwaysinline nounwind willreturn memory(none) uwtable
define internal zeroext i16 @av_bswap16(i16 noundef zeroext %0) #4 {
  %2 = alloca i16, align 2
  store i16 %0, ptr %2, align 2, !tbaa !44
  %3 = load i16, ptr %2, align 2, !tbaa !44
  %4 = zext i16 %3 to i32
  %5 = ashr i32 %4, 8
  %6 = load i16, ptr %2, align 2, !tbaa !44
  %7 = zext i16 %6 to i32
  %8 = shl i32 %7, 8
  %9 = or i32 %5, %8
  %10 = trunc i32 %9 to i16
  store i16 %10, ptr %2, align 2, !tbaa !44
  %11 = load i16, ptr %2, align 2, !tbaa !44
  ret i16 %11
}

; Function Attrs: alwaysinline nounwind uwtable
define internal void @planar_rgb16_to_a(ptr noundef %0, ptr noundef %1, i32 noundef %2, i32 noundef %3, i32 noundef %4, ptr noundef %5) #3 {
  %7 = alloca ptr, align 8
  %8 = alloca ptr, align 8
  %9 = alloca i32, align 4
  %10 = alloca i32, align 4
  %11 = alloca i32, align 4
  %12 = alloca ptr, align 8
  %13 = alloca i32, align 4
  %14 = alloca ptr, align 8
  %15 = alloca ptr, align 8
  %16 = alloca i32, align 4
  store ptr %0, ptr %7, align 8, !tbaa !34
  store ptr %1, ptr %8, align 8, !tbaa !47
  store i32 %2, ptr %9, align 4, !tbaa !30
  store i32 %3, ptr %10, align 4, !tbaa !30
  store i32 %4, ptr %11, align 4, !tbaa !30
  store ptr %5, ptr %12, align 8, !tbaa !35
  call void @llvm.lifetime.start.p0(i64 4, ptr %13) #9
  call void @llvm.lifetime.start.p0(i64 8, ptr %14) #9
  %17 = load ptr, ptr %8, align 8, !tbaa !47
  store ptr %17, ptr %14, align 8, !tbaa !127
  call void @llvm.lifetime.start.p0(i64 8, ptr %15) #9
  %18 = load ptr, ptr %7, align 8, !tbaa !34
  store ptr %18, ptr %15, align 8, !tbaa !43
  call void @llvm.lifetime.start.p0(i64 4, ptr %16) #9
  %19 = load i32, ptr %10, align 4, !tbaa !30
  %20 = icmp slt i32 %19, 16
  br i1 %20, label %21, label %23

21:                                               ; preds = %6
  %22 = load i32, ptr %10, align 4, !tbaa !30
  br label %24

23:                                               ; preds = %6
  br label %24

24:                                               ; preds = %23, %21
  %25 = phi i32 [ %22, %21 ], [ 14, %23 ]
  store i32 %25, ptr %16, align 4, !tbaa !30
  store i32 0, ptr %13, align 4, !tbaa !30
  br label %26

26:                                               ; preds = %62, %24
  %27 = load i32, ptr %13, align 4, !tbaa !30
  %28 = load i32, ptr %9, align 4, !tbaa !30
  %29 = icmp slt i32 %27, %28
  br i1 %29, label %30, label %65

30:                                               ; preds = %26
  %31 = load i32, ptr %11, align 4, !tbaa !30
  %32 = icmp ne i32 %31, 0
  br i1 %32, label %33, label %43

33:                                               ; preds = %30
  %34 = load ptr, ptr %14, align 8, !tbaa !127
  %35 = getelementptr inbounds ptr, ptr %34, i64 3
  %36 = load ptr, ptr %35, align 8, !tbaa !43
  %37 = load i32, ptr %13, align 4, !tbaa !30
  %38 = sext i32 %37 to i64
  %39 = getelementptr inbounds i16, ptr %36, i64 %38
  %40 = load i16, ptr %39, align 1, !tbaa !36
  %41 = call zeroext i16 @av_bswap16(i16 noundef zeroext %40) #10
  %42 = zext i16 %41 to i32
  br label %52

43:                                               ; preds = %30
  %44 = load ptr, ptr %14, align 8, !tbaa !127
  %45 = getelementptr inbounds ptr, ptr %44, i64 3
  %46 = load ptr, ptr %45, align 8, !tbaa !43
  %47 = load i32, ptr %13, align 4, !tbaa !30
  %48 = sext i32 %47 to i64
  %49 = getelementptr inbounds i16, ptr %46, i64 %48
  %50 = load i16, ptr %49, align 1, !tbaa !36
  %51 = zext i16 %50 to i32
  br label %52

52:                                               ; preds = %43, %33
  %53 = phi i32 [ %42, %33 ], [ %51, %43 ]
  %54 = load i32, ptr %16, align 4, !tbaa !30
  %55 = sub nsw i32 14, %54
  %56 = shl i32 %53, %55
  %57 = trunc i32 %56 to i16
  %58 = load ptr, ptr %15, align 8, !tbaa !43
  %59 = load i32, ptr %13, align 4, !tbaa !30
  %60 = sext i32 %59 to i64
  %61 = getelementptr inbounds i16, ptr %58, i64 %60
  store i16 %57, ptr %61, align 2, !tbaa !44
  br label %62

62:                                               ; preds = %52
  %63 = load i32, ptr %13, align 4, !tbaa !30
  %64 = add nsw i32 %63, 1
  store i32 %64, ptr %13, align 4, !tbaa !30
  br label %26, !llvm.loop !153

65:                                               ; preds = %26
  call void @llvm.lifetime.end.p0(i64 4, ptr %16) #9
  call void @llvm.lifetime.end.p0(i64 8, ptr %15) #9
  call void @llvm.lifetime.end.p0(i64 8, ptr %14) #9
  call void @llvm.lifetime.end.p0(i64 4, ptr %13) #9
  ret void
}

; Function Attrs: nounwind uwtable
define internal void @planar_rgb16be_to_a(ptr noundef %0, ptr noundef %1, i32 noundef %2, ptr noundef %3, ptr noundef %4) #2 {
  %6 = alloca ptr, align 8
  %7 = alloca ptr, align 8
  %8 = alloca i32, align 4
  %9 = alloca ptr, align 8
  %10 = alloca ptr, align 8
  store ptr %0, ptr %6, align 8, !tbaa !34
  store ptr %1, ptr %7, align 8, !tbaa !47
  store i32 %2, ptr %8, align 4, !tbaa !30
  store ptr %3, ptr %9, align 8, !tbaa !35
  store ptr %4, ptr %10, align 8, !tbaa !31
  %11 = load ptr, ptr %6, align 8, !tbaa !34
  %12 = load ptr, ptr %7, align 8, !tbaa !47
  %13 = load i32, ptr %8, align 4, !tbaa !30
  %14 = load ptr, ptr %9, align 8, !tbaa !35
  call void @planar_rgb16_to_a(ptr noundef %11, ptr noundef %12, i32 noundef %13, i32 noundef 16, i32 noundef 1, ptr noundef %14)
  ret void
}