; Function Attrs: nofree norecurse nosync nounwind memory(read, argmem: readwrite, inaccessiblemem: none) uwtable
define internal void @planar_rgb16be_to_a(ptr noundef writeonly captures(none) %0, ptr noundef readonly captures(none) %1, i32 noundef %2, ptr readnone captures(none) %3, ptr readnone captures(none) %4) #2 {
  %6 = icmp sgt i32 %2, 0
  br i1 %6, label %.lr.ph, label %planar_rgb16_to_a.exit

.lr.ph:                                           ; preds = %5
  %7 = getelementptr inbounds nuw i8, ptr %1, i64 24
  %8 = load ptr, ptr %7, align 8, !tbaa !46
  %wide.trip.count = zext nneg i32 %2 to i64
  br label %9

9:                                                ; preds = %.lr.ph, %9
  %indvars.iv = phi i64 [ 0, %.lr.ph ], [ %indvars.iv.next, %9 ]
  %10 = getelementptr inbounds nuw i16, ptr %8, i64 %indvars.iv
  %11 = load i16, ptr %10, align 1, !tbaa !34
  %12 = tail call i16 @llvm.bswap.i16(i16 %11)
  %13 = getelementptr inbounds nuw i16, ptr %0, i64 %indvars.iv
  store i16 %12, ptr %13, align 2, !tbaa !43
  %indvars.iv.next = add nuw nsw i64 %indvars.iv, 1
  %exitcond.not = icmp eq i64 %indvars.iv.next, %wide.trip.count
  br i1 %exitcond.not, label %planar_rgb16_to_a.exit, label %9, !llvm.loop !92

planar_rgb16_to_a.exit:                           ; preds = %9, %5
  ret void
}